; see EXE_interface.cpp for documentation regarding this file

; please keep this file organized. It's hard enough to read it even with proper organization
; sort functions alphabetically and sort the functions in each alphabetically
; this will make it at least doable to see which functions are redirected
; also comment if needed. ; sets the entire line to a comment, which seems to be the only way to comment in a .def file

; https://learn.microsoft.com/en-us/cpp/build/reference/module-definition-dot-def-files?view=msvc-170

EXPORTS

; CvArtInfoAsset
?getKFM@CvArtInfoAsset@@QBEPBDXZ=?getKFM@EXE_CvArtInfoAsset@@QBEPBDXZ
?getNIF@CvArtInfoAsset@@QBEPBDXZ=?getNIF@EXE_CvArtInfoAsset@@QBEPBDXZ

; CvCity
?popOrder@CvCity@@QAEXH_N0@Z=?popOrder@EXE_CvCity@@QAEXH_N0@Z
?pushOrder@CvCity@@QAEXW4OrderTypes@@HH_N111@Z=?pushOrder@EXE_CvCity@@QAEXW4OrderTypes@@HH_N111@Z

; CvGlobals
?getBuildingInfo@CvGlobals@@QAEAAVCvBuildingInfo@@W4BuildingTypes@@@Z=?getBuildingInfo@EXE_CvGlobals@@QAEAAVCvBuildingInfo@@W4BuildingTypes@@@Z
?getBuildingInfo@CvGlobals@@QAEAAV?$vector@PAVCvBuildingInfo@@V?$allocator@PAVCvBuildingInfo@@@std@@@std@@XZ=?getBuildingInfo@EXE_CvGlobals@@QAEAAV?$vector@PAVCvBuildingInfo@@V?$allocator@PAVCvBuildingInfo@@@std@@@std@@XZ
?getMap@CvGlobals@@QAEAAVCvMap@@XZ=?getMap@EXE_CvGlobals@@QAEAAVCvMap@@XZ
?getNumBuildingInfos@CvGlobals@@QAEHXZ=?getNumBuildingInfos@EXE_CvGlobals@@QAEHXZ
?getNumUnitInfos@CvGlobals@@QAEHXZ=?getNumUnitInfos@EXE_CvGlobals@@QAEHXZ
?getNUM_YIELD_TYPES@CvGlobals@@QBEHXZ=?getNUM_YIELD_TYPES@EXE_CvGlobals@@QBEHXZ
?getUnitInfo@CvGlobals@@QAEAAVCvUnitInfo@@W4UnitTypes@@@Z=?getUnitInfo@EXE_CvGlobals@@QAEAAVCvUnitInfo@@W4UnitTypes@@@Z
?getUnitInfo@CvGlobals@@QAEAAV?$vector@PAVCvUnitInfo@@V?$allocator@PAVCvUnitInfo@@@std@@@std@@XZ=?getUnitInfo@EXE_CvGlobals@@QAEAAV?$vector@PAVCvUnitInfo@@V?$allocator@PAVCvUnitInfo@@@std@@@std@@XZ

; CvPlayer
?getUnitButton@CvPlayer@@QBEPBDW4UnitTypes@@@Z=?getUnitButton@EXE_CvPlayer@@QBEPBDW4UnitTypes@@@Z

; CvUnit
?getDefaultProfession@CvUnitInfo@@QBEHXZ=?getDefaultProfession@EXE_CvUnitInfo@@QBEHXZ
?getArtInfo@CvUnit@@QBEPBVCvArtInfoUnit@@H@Z=?getArtInfo@EXE_CvUnit@@QBEPBVCvArtInfoUnit@@H@Z

; CvUnitInfo
?getArtInfo@CvUnitInfo@@QBEPBVCvArtInfoUnit@@HH@Z=?getArtInfo@EXE_CvUnitInfo@@QBEPBVCvArtInfoUnit@@HH@Z
?getDomainType@CvUnitInfo@@QBEHXZ=?getDomainType@EXE_CvUnitInfo@@QBEHXZ
?getUnitClassType@CvUnitInfo@@QBEHXZ=?getUnitClassType@EXE_CvUnitInfo@@QBEHXZ
